; Function Attrs: mustprogress uwtable
define dso_local void @_ZN5ImGui18PushColumnClipRectEi(i32 noundef %0) local_unnamed_addr #0 {
  %2 = load ptr, ptr @GImGui, align 8, !tbaa !4
  %3 = getelementptr inbounds nuw i8, ptr %2, i64 4928
  %4 = load ptr, ptr %3, align 8, !tbaa !9
  %5 = getelementptr inbounds nuw i8, ptr %4, i64 448
  %6 = load ptr, ptr %5, align 8, !tbaa !608
  %7 = icmp slt i32 %0, 0
  br i1 %7, label %8, label %11

8:                                                ; preds = %1
  %9 = getelementptr inbounds nuw i8, ptr %6, i64 12
  %10 = load i32, ptr %9, align 4, !tbaa !609
  br label %11

11:                                               ; preds = %8, %1
  %.0 = phi i32 [ %10, %8 ], [ %0, %1 ]
  %12 = getelementptr inbounds nuw i8, ptr %6, i64 104
  %13 = load ptr, ptr %12, align 8, !tbaa !616
  %14 = sext i32 %.0 to i64
  %15 = getelementptr inbounds %struct.ImGuiOldColumnData, ptr %13, i64 %14
  %16 = getelementptr inbounds nuw i8, ptr %15, i64 12
  %17 = getelementptr inbounds nuw i8, ptr %15, i64 20
  tail call void @_ZN5ImGui12PushClipRectERK6ImVec2S2_b(ptr noundef nonnull align 4 dereferenceable(8) %16, ptr noundef nonnull align 4 dereferenceable(8) %17, i1 noundef zeroext false)
  ret void
}